target datalayout = "e-m:e-p270:32:32-p271:32:32-p272:64:64-i64:64-i128:128-f80:128-n8:16:32:64-S128"
target triple = "x86_64-pc-linux-gnu"

@.str.3 = private unnamed_addr constant [4 x i8] c"all\00", align 1
@.str.4 = private unnamed_addr constant [5 x i8] c"hash\00", align 1
@.str.5 = private unnamed_addr constant [2 x i8] c",\00", align 1

; Function Attrs: nounwind uwtable
define dso_local i32 @lru_crawler_crawl(ptr noundef %0, i32 noundef %1, ptr noundef %2, i32 noundef %3, i32 noundef %4) #0 {
  %6 = alloca i32, align 4
  %7 = alloca ptr, align 8
  %8 = alloca i32, align 4
  %9 = alloca ptr, align 8
  %10 = alloca i32, align 4
  %11 = alloca i32, align 4
  %12 = alloca ptr, align 8
  %13 = alloca i32, align 4
  %14 = alloca i32, align 4
  %15 = alloca [256 x i8], align 16
  %16 = alloca i8, align 1
  %17 = alloca ptr, align 8
  %18 = alloca i32, align 4
  store ptr %0, ptr %7, align 8, !tbaa !42
  store i32 %1, ptr %8, align 4, !tbaa !20
  store ptr %2, ptr %9, align 8, !tbaa !9
  store i32 %3, ptr %10, align 4, !tbaa !20
  store i32 %4, ptr %11, align 4, !tbaa !20
  call void @llvm.lifetime.start.p0(i64 8, ptr %12) #11
  store ptr null, ptr %12, align 8, !tbaa !42
  call void @llvm.lifetime.start.p0(i64 4, ptr %13) #11
  store i32 0, ptr %13, align 4, !tbaa !20
  call void @llvm.lifetime.start.p0(i64 4, ptr %14) #11
  store i32 0, ptr %14, align 4, !tbaa !20
  call void @llvm.lifetime.start.p0(i64 256, ptr %15) #11
  call void @llvm.lifetime.start.p0(i64 1, ptr %16) #11
  store i8 0, ptr %16, align 1, !tbaa !30
  %19 = getelementptr inbounds [256 x i8], ptr %15, i64 0, i64 0
  call void @llvm.memset.p0.i64(ptr align 16 %19, i8 0, i64 256, i1 false)
  %20 = load ptr, ptr %7, align 8, !tbaa !42
  %21 = call i32 @strcmp(ptr noundef %20, ptr noundef @.str.3) #13
  %22 = icmp eq i32 %21, 0
  br i1 %22, label %23, label %35

23:                                               ; preds = %5
  store i32 0, ptr %13, align 4, !tbaa !20
  br label %24

24:                                               ; preds = %31, %23
  %25 = load i32, ptr %13, align 4, !tbaa !20
  %26 = icmp ult i32 %25, 256
  br i1 %26, label %27, label %34

27:                                               ; preds = %24
  %28 = load i32, ptr %13, align 4, !tbaa !20
  %29 = zext i32 %28 to i64
  %30 = getelementptr inbounds nuw [256 x i8], ptr %15, i64 0, i64 %29
  store i8 1, ptr %30, align 1, !tbaa !45
  br label %31

31:                                               ; preds = %27
  %32 = load i32, ptr %13, align 4, !tbaa !20
  %33 = add i32 %32, 1
  store i32 %33, ptr %13, align 4, !tbaa !20
  br label %24, !llvm.loop !94

34:                                               ; preds = %24
  br label %80

35:                                               ; preds = %5
  %36 = load ptr, ptr %7, align 8, !tbaa !42
  %37 = call i32 @strcmp(ptr noundef %36, ptr noundef @.str.4) #13
  %38 = icmp eq i32 %37, 0
  br i1 %38, label %39, label %40

39:                                               ; preds = %35
  store i8 1, ptr %16, align 1, !tbaa !30
  br label %79

40:                                               ; preds = %35
  call void @llvm.lifetime.start.p0(i64 8, ptr %17) #11
  %41 = load ptr, ptr %7, align 8, !tbaa !42
  %42 = call ptr @strtok_r(ptr noundef %41, ptr noundef @.str.5, ptr noundef %12) #11
  store ptr %42, ptr %17, align 8, !tbaa !42
  br label %43

43:                                               ; preds = %74, %40
  %44 = load ptr, ptr %17, align 8, !tbaa !42
  %45 = icmp ne ptr %44, null
  br i1 %45, label %47, label %46

46:                                               ; preds = %43
  store i32 5, ptr %18, align 4
  br label %76

47:                                               ; preds = %43
  %48 = load ptr, ptr %17, align 8, !tbaa !42
  %49 = call zeroext i1 @safe_strtoul(ptr noundef %48, ptr noundef %13)
  br i1 %49, label %50, label %56

50:                                               ; preds = %47
  %51 = load i32, ptr %13, align 4, !tbaa !20
  %52 = icmp ult i32 %51, 1
  br i1 %52, label %56, label %53

53:                                               ; preds = %50
  %54 = load i32, ptr %13, align 4, !tbaa !20
  %55 = icmp uge i32 %54, 64
  br i1 %55, label %56, label %57

56:                                               ; preds = %53, %50, %47
  store i32 2, ptr %6, align 4
  store i32 1, ptr %18, align 4
  br label %76

57:                                               ; preds = %53
  %58 = load i32, ptr %13, align 4, !tbaa !20
  %59 = or i32 %58, 192
  %60 = zext i32 %59 to i64
  %61 = getelementptr inbounds nuw [256 x i8], ptr %15, i64 0, i64 %60
  store i8 1, ptr %61, align 1, !tbaa !45
  %62 = load i32, ptr %13, align 4, !tbaa !20
  %63 = or i32 %62, 0
  %64 = zext i32 %63 to i64
  %65 = getelementptr inbounds nuw [256 x i8], ptr %15, i64 0, i64 %64
  store i8 1, ptr %65, align 1, !tbaa !45
  %66 = load i32, ptr %13, align 4, !tbaa !20
  %67 = or i32 %66, 64
  %68 = zext i32 %67 to i64
  %69 = getelementptr inbounds nuw [256 x i8], ptr %15, i64 0, i64 %68
  store i8 1, ptr %69, align 1, !tbaa !45
  %70 = load i32, ptr %13, align 4, !tbaa !20
  %71 = or i32 %70, 128
  %72 = zext i32 %71 to i64
  %73 = getelementptr inbounds nuw [256 x i8], ptr %15, i64 0, i64 %72
  store i8 1, ptr %73, align 1, !tbaa !45
  br label %74

74:                                               ; preds = %57
  %75 = call ptr @strtok_r(ptr noundef null, ptr noundef @.str.5, ptr noundef %12) #11
  store ptr %75, ptr %17, align 8, !tbaa !42
  br label %43, !llvm.loop !95

76:                                               ; preds = %56, %46
  call void @llvm.lifetime.end.p0(i64 8, ptr %17) #11
  %77 = load i32, ptr %18, align 4
  switch i32 %77, label %105 [
    i32 5, label %78
  ]

78:                                               ; preds = %76
  br label %79

79:                                               ; preds = %78, %39
  br label %80

80:                                               ; preds = %79, %34
  %81 = load i8, ptr %16, align 1, !tbaa !30, !range !33, !noundef !34
  %82 = trunc i8 %81 to i1
  br i1 %82, label %83, label %84

83:                                               ; preds = %80
  br label %86

84:                                               ; preds = %80
  %85 = getelementptr inbounds [256 x i8], ptr %15, i64 0, i64 0
  br label %86

86:                                               ; preds = %84, %83
  %87 = phi ptr [ null, %83 ], [ %85, %84 ]
  %88 = load i32, ptr %11, align 4, !tbaa !20
  %89 = load i32, ptr %8, align 4, !tbaa !20
  %90 = load ptr, ptr %9, align 8, !tbaa !9
  %91 = load i32, ptr %10, align 4, !tbaa !20
  %92 = call i32 @lru_crawler_start(ptr noundef %87, i32 noundef %88, i32 noundef %89, ptr noundef null, ptr noundef %90, i32 noundef %91)
  store i32 %92, ptr %14, align 4, !tbaa !20
  %93 = load i32, ptr %14, align 4, !tbaa !20
  %94 = icmp eq i32 %93, -1
  br i1 %94, label %95, label %96

95:                                               ; preds = %86
  store i32 1, ptr %6, align 4
  store i32 1, ptr %18, align 4
  br label %105

96:                                               ; preds = %86
  %97 = load i32, ptr %14, align 4, !tbaa !20
  %98 = icmp eq i32 %97, -2
  br i1 %98, label %99, label %100

99:                                               ; preds = %96
  store i32 4, ptr %6, align 4
  store i32 1, ptr %18, align 4
  br label %105

100:                                              ; preds = %96
  %101 = load i32, ptr %14, align 4, !tbaa !20
  %102 = icmp ne i32 %101, 0
  br i1 %102, label %103, label %104

103:                                              ; preds = %100
  store i32 0, ptr %6, align 4
  store i32 1, ptr %18, align 4
  br label %105

104:                                              ; preds = %100
  store i32 3, ptr %6, align 4
  store i32 1, ptr %18, align 4
  br label %105

105:                                              ; preds = %104, %103, %99, %95, %76
  call void @llvm.lifetime.end.p0(i64 1, ptr %16) #11
  call void @llvm.lifetime.end.p0(i64 256, ptr %15) #11
  call void @llvm.lifetime.end.p0(i64 4, ptr %14) #11
  call void @llvm.lifetime.end.p0(i64 4, ptr %13) #11
  call void @llvm.lifetime.end.p0(i64 8, ptr %12) #11
  %106 = load i32, ptr %6, align 4
  ret i32 %106
}