; Function Attrs: nounwind uwtable
define dso_local range(i32 0, 5) i32 @lru_crawler_crawl(ptr noundef %0, i32 noundef %1, ptr noundef %2, i32 noundef %3, i32 noundef %4) local_unnamed_addr #0 {
  %6 = alloca ptr, align 8
  %7 = alloca i32, align 4
  %8 = alloca [256 x i8], align 16
  call void @llvm.lifetime.start.p0(i64 8, ptr nonnull %6) #18
  store ptr null, ptr %6, align 8, !tbaa !87
  call void @llvm.lifetime.start.p0(i64 4, ptr nonnull %7) #18
  store i32 0, ptr %7, align 4, !tbaa !10
  call void @llvm.lifetime.start.p0(i64 256, ptr nonnull %8) #18
  call void @llvm.memset.p0.i64(ptr noundef nonnull align 16 dereferenceable(256) %8, i8 0, i64 256, i1 false)
  %9 = tail call i32 @strcmp(ptr noundef nonnull dereferenceable(1) %0, ptr noundef nonnull dereferenceable(4) @.str.3) #23
  %10 = icmp eq i32 %9, 0
  br i1 %10, label %.preheader.preheader, label %11

.preheader.preheader:                             ; preds = %5
  call void @llvm.memset.p0.i64(ptr noundef nonnull align 16 dereferenceable(256) %8, i8 1, i64 256, i1 false), !tbaa !36
  store i32 256, ptr %7, align 4, !tbaa !10
  br label %.critedge

11:                                               ; preds = %5
  %12 = tail call i32 @strcmp(ptr noundef nonnull dereferenceable(1) %0, ptr noundef nonnull dereferenceable(5) @.str.4) #23
  %13 = icmp eq i32 %12, 0
  br i1 %13, label %.critedge, label %14

14:                                               ; preds = %11
  %15 = call ptr @strtok_r(ptr noundef nonnull %0, ptr noundef nonnull @.str.5, ptr noundef nonnull %6) #18
  %.not2326 = icmp eq ptr %15, null
  br i1 %.not2326, label %.critedge, label %.lr.ph

.lr.ph:                                           ; preds = %14, %20
  %.01727 = phi ptr [ %32, %20 ], [ %15, %14 ]
  %16 = call zeroext i1 @safe_strtoul(ptr noundef nonnull %.01727, ptr noundef nonnull %7) #18
  %17 = load i32, ptr %7, align 4
  %18 = add i32 %17, -1
  %19 = icmp ult i32 %18, 63
  %or.cond3.not = select i1 %16, i1 %19, i1 false
  br i1 %or.cond3.not, label %20, label %.loopexit

20:                                               ; preds = %.lr.ph
  %21 = or disjoint i32 %17, 192
  %22 = zext nneg i32 %21 to i64
  %23 = getelementptr inbounds nuw [256 x i8], ptr %8, i64 0, i64 %22
  store i8 1, ptr %23, align 1, !tbaa !36
  %24 = zext nneg i32 %17 to i64
  %25 = getelementptr inbounds nuw [256 x i8], ptr %8, i64 0, i64 %24
  store i8 1, ptr %25, align 1, !tbaa !36
  %26 = or disjoint i32 %17, 64
  %27 = zext nneg i32 %26 to i64
  %28 = getelementptr inbounds nuw [256 x i8], ptr %8, i64 0, i64 %27
  store i8 1, ptr %28, align 1, !tbaa !36
  %29 = or disjoint i32 %17, 128
  %30 = zext nneg i32 %29 to i64
  %31 = getelementptr inbounds nuw [256 x i8], ptr %8, i64 0, i64 %30
  store i8 1, ptr %31, align 1, !tbaa !36
  %32 = call ptr @strtok_r(ptr noundef null, ptr noundef nonnull @.str.5, ptr noundef nonnull %6) #18
  %.not23 = icmp eq ptr %32, null
  br i1 %.not23, label %.critedge, label %.lr.ph, !llvm.loop !88

.critedge:                                        ; preds = %20, %14, %.preheader.preheader, %11
  %.018 = phi ptr [ null, %11 ], [ %8, %.preheader.preheader ], [ %8, %14 ], [ %8, %20 ]
  %33 = call i32 @lru_crawler_start(ptr noundef %.018, i32 noundef %4, i32 noundef %1, ptr noundef null, ptr noundef %2, i32 noundef %3)
  %switch.tableidx = add i32 %33, 2
  %34 = icmp ult i32 %switch.tableidx, 3
  br i1 %34, label %switch.lookup, label %.loopexit

switch.lookup:                                    ; preds = %.critedge
  %35 = zext nneg i32 %switch.tableidx to i64
  %switch.gep = getelementptr inbounds nuw [3 x i32], ptr @switch.table.lru_crawler_crawl, i64 0, i64 %35
  %switch.load = load i32, ptr %switch.gep, align 4
  br label %.loopexit

.loopexit:                                        ; preds = %.lr.ph, %.critedge, %switch.lookup
  %.1 = phi i32 [ %switch.load, %switch.lookup ], [ 0, %.critedge ], [ 2, %.lr.ph ]
  call void @llvm.lifetime.end.p0(i64 256, ptr nonnull %8) #18
  call void @llvm.lifetime.end.p0(i64 4, ptr nonnull %7) #18
  call void @llvm.lifetime.end.p0(i64 8, ptr nonnull %6) #18
  ret i32 %.1
}